ARM GAS  C:\Users\Korisnik\AppData\Local\Temp\ccOv6Ipd.s 			page 1


   1              		.cpu cortex-m3
   2              		.eabi_attribute 20, 1
   3              		.eabi_attribute 21, 1
   4              		.eabi_attribute 23, 3
   5              		.eabi_attribute 24, 1
   6              		.eabi_attribute 25, 1
   7              		.eabi_attribute 26, 1
   8              		.eabi_attribute 30, 1
   9              		.eabi_attribute 34, 1
  10              		.eabi_attribute 18, 4
  11              		.file	"main.c"
  12              		.text
  13              	.Ltext0:
  14              		.cfi_sections	.debug_frame
  15              		.section	.text.HAL_TIM_PeriodElapsedCallback,"ax",%progbits
  16              		.align	1
  17              		.global	HAL_TIM_PeriodElapsedCallback
  18              		.arch armv7-m
  19              		.syntax unified
  20              		.thumb
  21              		.thumb_func
  22              		.fpu softvfp
  24              	HAL_TIM_PeriodElapsedCallback:
  25              	.LVL0:
  26              	.LFB71:
  27              		.file 1 "../Core/Src/main.c"
   1:../Core/Src/main.c **** 
  28              		.loc 1 174 1 view -0
  29              		.cfi_startproc
  30              		@ args = 0, pretend = 0, frame = 0
  31              		@ frame_needed = 0, uses_anonymous_args = 0
  32              		.loc 1 174 1 is_stmt 0 view .LVU1
  33 0000 10B5     		push	{r4, lr}
  34              	.LCFI0:
  35              		.cfi_def_cfa_offset 8
  36              		.cfi_offset 4, -8
  37              		.cfi_offset 14, -4
  38 0002 0446     		mov	r4, r0
  39              		.loc 1 178 3 is_stmt 1 view .LVU2
  40              		.loc 1 178 11 is_stmt 0 view .LVU3
  41 0004 0368     		ldr	r3, [r0]
  42              		.loc 1 178 6 view .LVU4
  43 0006 B3F1804F 		cmp	r3, #1073741824
  44 000a 05D0     		beq	.L5
  45              	.LVL1:
  46              	.L2:
  47              		.loc 1 182 3 is_stmt 1 view .LVU5
  48              		.loc 1 182 10 is_stmt 0 view .LVU6
  49 000c 2268     		ldr	r2, [r4]
  50              		.loc 1 182 27 view .LVU7
  51 000e 064B     		ldr	r3, .L7
  52 0010 1B68     		ldr	r3, [r3]
  53              		.loc 1 182 5 view .LVU8
  54 0012 9A42     		cmp	r2, r3
  55 0014 03D0     		beq	.L6
  56              	.L1:
  57              		.loc 1 186 1 view .LVU9
ARM GAS  C:\Users\Korisnik\AppData\Local\Temp\ccOv6Ipd.s 			page 2


  58 0016 10BD     		pop	{r4, pc}
  59              	.LVL2:
  60              	.L5:
  61              		.loc 1 179 5 is_stmt 1 view .LVU10
  62 0018 044B     		ldr	r3, .L7+4
  63 001a 9847     		blx	r3
  64              	.LVL3:
  65              		.loc 1 179 5 is_stmt 0 view .LVU11
  66 001c F6E7     		b	.L2
  67              	.L6:
  68              		.loc 1 183 4 is_stmt 1 view .LVU12
  69              		.loc 1 183 12 is_stmt 0 view .LVU13
  70 001e 044A     		ldr	r2, .L7+8
  71 0020 1368     		ldr	r3, [r2]
  72 0022 0133     		adds	r3, r3, #1
  73 0024 1360     		str	r3, [r2]
  74              		.loc 1 186 1 view .LVU14
  75 0026 F6E7     		b	.L1
  76              	.L8:
  77              		.align	2
  78              	.L7:
  79 0028 00000000 		.word	htim1
  80 002c 00000000 		.word	HAL_IncTick
  81 0030 00000000 		.word	overflow
  82              		.cfi_endproc
  83              	.LFE71:
  85              		.section	.text.Error_Handler,"ax",%progbits
  86              		.align	1
  87              		.global	Error_Handler
  88              		.syntax unified
  89              		.thumb
  90              		.thumb_func
  91              		.fpu softvfp
  93              	Error_Handler:
  94              	.LFB72:
  95              		.loc 1 193 1 is_stmt 1 view -0
  96              		.cfi_startproc
  97              		@ Volatile: function does not return.
  98              		@ args = 0, pretend = 0, frame = 0
  99              		@ frame_needed = 0, uses_anonymous_args = 0
 100              		@ link register save eliminated.
 101              		.loc 1 196 2 view .LVU16
 102              	.LBB4:
 103              	.LBI4:
 104              		.file 2 "../Drivers/CMSIS/Include/cmsis_gcc.h"
   1:../Drivers/CMSIS/Include/cmsis_gcc.h **** 
 105              		.loc 2 140 27 view .LVU17
 106              	.LBB5:
 107              		.loc 2 142 3 view .LVU18
 108              		.syntax unified
 109              	@ 142 "Drivers/CMSIS/Include/cmsis_gcc.h" 1
 110 0000 72B6     		cpsid i
 111              	@ 0 "" 2
 112              		.thumb
 113              		.syntax unified
 114              	.L10:
 115              	.LBE5:
ARM GAS  C:\Users\Korisnik\AppData\Local\Temp\ccOv6Ipd.s 			page 3


 116              	.LBE4:
 117              		.loc 1 197 2 discriminator 1 view .LVU19
 118              		.loc 1 199 2 discriminator 1 view .LVU20
 119              		.loc 1 197 8 discriminator 1 view .LVU21
 120 0002 FEE7     		b	.L10
 121              		.cfi_endproc
 122              	.LFE72:
 124              		.section	.text.SystemClock_Config,"ax",%progbits
 125              		.align	1
 126              		.global	SystemClock_Config
 127              		.syntax unified
 128              		.thumb
 129              		.thumb_func
 130              		.fpu softvfp
 132              	SystemClock_Config:
 133              	.LFB70:
 134              		.loc 1 124 1 view -0
 135              		.cfi_startproc
 136              		@ args = 0, pretend = 0, frame = 80
 137              		@ frame_needed = 0, uses_anonymous_args = 0
 138 0000 00B5     		push	{lr}
 139              	.LCFI1:
 140              		.cfi_def_cfa_offset 4
 141              		.cfi_offset 14, -4
 142 0002 95B0     		sub	sp, sp, #84
 143              	.LCFI2:
 144              		.cfi_def_cfa_offset 88
 145              		.loc 1 125 3 view .LVU23
 146              		.loc 1 125 22 is_stmt 0 view .LVU24
 147 0004 2822     		movs	r2, #40
 148 0006 0021     		movs	r1, #0
 149 0008 0DEB0200 		add	r0, sp, r2
 150 000c 184B     		ldr	r3, .L19
 151 000e 9847     		blx	r3
 152              	.LVL4:
 153              		.loc 1 126 3 is_stmt 1 view .LVU25
 154              		.loc 1 126 22 is_stmt 0 view .LVU26
 155 0010 0023     		movs	r3, #0
 156 0012 0593     		str	r3, [sp, #20]
 157 0014 0693     		str	r3, [sp, #24]
 158 0016 0793     		str	r3, [sp, #28]
 159 0018 0893     		str	r3, [sp, #32]
 160 001a 0993     		str	r3, [sp, #36]
 161              		.loc 1 127 3 is_stmt 1 view .LVU27
 162              		.loc 1 127 28 is_stmt 0 view .LVU28
 163 001c 0193     		str	r3, [sp, #4]
 164 001e 0293     		str	r3, [sp, #8]
 165 0020 0393     		str	r3, [sp, #12]
 166 0022 0493     		str	r3, [sp, #16]
 167              		.loc 1 132 3 is_stmt 1 view .LVU29
 168              		.loc 1 132 36 is_stmt 0 view .LVU30
 169 0024 0223     		movs	r3, #2
 170 0026 0A93     		str	r3, [sp, #40]
 171              		.loc 1 133 3 is_stmt 1 view .LVU31
 172              		.loc 1 133 30 is_stmt 0 view .LVU32
 173 0028 0123     		movs	r3, #1
 174 002a 0E93     		str	r3, [sp, #56]
ARM GAS  C:\Users\Korisnik\AppData\Local\Temp\ccOv6Ipd.s 			page 4


 175              		.loc 1 134 3 is_stmt 1 view .LVU33
 176              		.loc 1 134 41 is_stmt 0 view .LVU34
 177 002c 1023     		movs	r3, #16
 178 002e 0F93     		str	r3, [sp, #60]
 179              		.loc 1 135 3 is_stmt 1 view .LVU35
 180              		.loc 1 136 3 view .LVU36
 181              		.loc 1 136 7 is_stmt 0 view .LVU37
 182 0030 0AA8     		add	r0, sp, #40
 183 0032 104B     		ldr	r3, .L19+4
 184 0034 9847     		blx	r3
 185              	.LVL5:
 186              		.loc 1 136 6 view .LVU38
 187 0036 A8B9     		cbnz	r0, .L16
 188              		.loc 1 142 3 is_stmt 1 view .LVU39
 189              		.loc 1 142 31 is_stmt 0 view .LVU40
 190 0038 0F23     		movs	r3, #15
 191 003a 0593     		str	r3, [sp, #20]
 192              		.loc 1 144 3 is_stmt 1 view .LVU41
 193              		.loc 1 144 34 is_stmt 0 view .LVU42
 194 003c 0021     		movs	r1, #0
 195 003e 0691     		str	r1, [sp, #24]
 196              		.loc 1 145 3 is_stmt 1 view .LVU43
 197              		.loc 1 145 35 is_stmt 0 view .LVU44
 198 0040 0791     		str	r1, [sp, #28]
 199              		.loc 1 146 3 is_stmt 1 view .LVU45
 200              		.loc 1 146 36 is_stmt 0 view .LVU46
 201 0042 0891     		str	r1, [sp, #32]
 202              		.loc 1 147 3 is_stmt 1 view .LVU47
 203              		.loc 1 147 36 is_stmt 0 view .LVU48
 204 0044 0991     		str	r1, [sp, #36]
 205              		.loc 1 149 3 is_stmt 1 view .LVU49
 206              		.loc 1 149 7 is_stmt 0 view .LVU50
 207 0046 05A8     		add	r0, sp, #20
 208 0048 0B4B     		ldr	r3, .L19+8
 209 004a 9847     		blx	r3
 210              	.LVL6:
 211              		.loc 1 149 6 view .LVU51
 212 004c 60B9     		cbnz	r0, .L17
 213              		.loc 1 153 3 is_stmt 1 view .LVU52
 214              		.loc 1 153 38 is_stmt 0 view .LVU53
 215 004e 0223     		movs	r3, #2
 216 0050 0193     		str	r3, [sp, #4]
 217              		.loc 1 154 3 is_stmt 1 view .LVU54
 218              		.loc 1 154 35 is_stmt 0 view .LVU55
 219 0052 0023     		movs	r3, #0
 220 0054 0393     		str	r3, [sp, #12]
 221              		.loc 1 155 3 is_stmt 1 view .LVU56
 222              		.loc 1 155 7 is_stmt 0 view .LVU57
 223 0056 01A8     		add	r0, sp, #4
 224 0058 084B     		ldr	r3, .L19+12
 225 005a 9847     		blx	r3
 226              	.LVL7:
 227              		.loc 1 155 6 view .LVU58
 228 005c 30B9     		cbnz	r0, .L18
 229              		.loc 1 159 1 view .LVU59
 230 005e 15B0     		add	sp, sp, #84
 231              	.LCFI3:
ARM GAS  C:\Users\Korisnik\AppData\Local\Temp\ccOv6Ipd.s 			page 5


 232              		.cfi_remember_state
 233              		.cfi_def_cfa_offset 4
 234              		@ sp needed
 235 0060 5DF804FB 		ldr	pc, [sp], #4
 236              	.L16:
 237              	.LCFI4:
 238              		.cfi_restore_state
 239              		.loc 1 138 5 is_stmt 1 view .LVU60
 240 0064 064B     		ldr	r3, .L19+16
 241 0066 9847     		blx	r3
 242              	.LVL8:
 243              	.L17:
 244              		.loc 1 151 5 view .LVU61
 245 0068 054B     		ldr	r3, .L19+16
 246 006a 9847     		blx	r3
 247              	.LVL9:
 248              	.L18:
 249              		.loc 1 157 5 view .LVU62
 250 006c 044B     		ldr	r3, .L19+16
 251 006e 9847     		blx	r3
 252              	.LVL10:
 253              	.L20:
 254              		.align	2
 255              	.L19:
 256 0070 00000000 		.word	memset
 257 0074 00000000 		.word	HAL_RCC_OscConfig
 258 0078 00000000 		.word	HAL_RCC_ClockConfig
 259 007c 00000000 		.word	HAL_RCCEx_PeriphCLKConfig
 260 0080 00000000 		.word	Error_Handler
 261              		.cfi_endproc
 262              	.LFE70:
 264              		.section	.text.main,"ax",%progbits
 265              		.align	1
 266              		.global	main
 267              		.syntax unified
 268              		.thumb
 269              		.thumb_func
 270              		.fpu softvfp
 272              	main:
 273              	.LFB69:
 274              		.loc 1 70 1 view -0
 275              		.cfi_startproc
 276              		@ Volatile: function does not return.
 277              		@ args = 0, pretend = 0, frame = 0
 278              		@ frame_needed = 0, uses_anonymous_args = 0
 279 0000 08B5     		push	{r3, lr}
 280              	.LCFI5:
 281              		.cfi_def_cfa_offset 8
 282              		.cfi_offset 3, -8
 283              		.cfi_offset 14, -4
 284              		.loc 1 78 3 view .LVU64
 285 0002 0B4B     		ldr	r3, .L24
 286 0004 9847     		blx	r3
 287              	.LVL11:
 288              		.loc 1 85 3 view .LVU65
 289 0006 0B4B     		ldr	r3, .L24+4
 290 0008 9847     		blx	r3
ARM GAS  C:\Users\Korisnik\AppData\Local\Temp\ccOv6Ipd.s 			page 6


 291              	.LVL12:
 292              		.loc 1 92 3 view .LVU66
 293 000a 0B4B     		ldr	r3, .L24+8
 294 000c 9847     		blx	r3
 295              	.LVL13:
 296              		.loc 1 93 3 view .LVU67
 297 000e 0B4B     		ldr	r3, .L24+12
 298 0010 9847     		blx	r3
 299              	.LVL14:
 300              		.loc 1 94 3 view .LVU68
 301 0012 0B4B     		ldr	r3, .L24+16
 302 0014 9847     		blx	r3
 303              	.LVL15:
 304              		.loc 1 95 3 view .LVU69
 305 0016 0B4B     		ldr	r3, .L24+20
 306 0018 9847     		blx	r3
 307              	.LVL16:
 308              		.loc 1 96 3 view .LVU70
 309 001a 0B4B     		ldr	r3, .L24+24
 310 001c 9847     		blx	r3
 311              	.LVL17:
 312              		.loc 1 98 3 view .LVU71
 313 001e 0B4B     		ldr	r3, .L24+28
 314 0020 9847     		blx	r3
 315              	.LVL18:
 316              		.loc 1 102 3 view .LVU72
 317 0022 0B4B     		ldr	r3, .L24+32
 318 0024 9847     		blx	r3
 319              	.LVL19:
 320              		.loc 1 103 3 view .LVU73
 321 0026 0B4B     		ldr	r3, .L24+36
 322 0028 9847     		blx	r3
 323              	.LVL20:
 324              		.loc 1 105 3 view .LVU74
 325 002a 0B4B     		ldr	r3, .L24+40
 326 002c 9847     		blx	r3
 327              	.LVL21:
 328              	.L22:
 329              		.loc 1 110 2 discriminator 1 view .LVU75
 330              		.loc 1 115 2 discriminator 1 view .LVU76
 331              		.loc 1 110 8 discriminator 1 view .LVU77
 332 002e FEE7     		b	.L22
 333              	.L25:
 334              		.align	2
 335              	.L24:
 336 0030 00000000 		.word	HAL_Init
 337 0034 00000000 		.word	SystemClock_Config
 338 0038 00000000 		.word	MX_GPIO_Init
 339 003c 00000000 		.word	MX_USART1_UART_Init
 340 0040 00000000 		.word	MX_TIM3_Init
 341 0044 00000000 		.word	MX_ADC1_Init
 342 0048 00000000 		.word	MX_TIM1_Init
 343 004c 00000000 		.word	homeworkInit
 344 0050 00000000 		.word	osKernelInitialize
 345 0054 00000000 		.word	MX_FREERTOS_Init
 346 0058 00000000 		.word	osKernelStart
 347              		.cfi_endproc
ARM GAS  C:\Users\Korisnik\AppData\Local\Temp\ccOv6Ipd.s 			page 7


 348              	.LFE69:
 350              		.text
 351              	.Letext0:
 352              		.file 3 "../c:\\users\\korisnik\\desktop\\gnu mcu\\arm-none-eabi-gcc-10.2.1-1.1\\arm-none-eabi\\in
 353              		.file 4 "../c:\\users\\korisnik\\desktop\\gnu mcu\\arm-none-eabi-gcc-10.2.1-1.1\\arm-none-eabi\\in
 354              		.file 5 "../Drivers/CMSIS/Device/ST/STM32F1xx/Include/stm32f103x6.h"
 355              		.file 6 "../Drivers/STM32F1xx_HAL_Driver/Inc/stm32f1xx_hal_def.h"
 356              		.file 7 "../Drivers/STM32F1xx_HAL_Driver/Inc/stm32f1xx_hal_rcc.h"
 357              		.file 8 "../Drivers/STM32F1xx_HAL_Driver/Inc/stm32f1xx_hal_rcc_ex.h"
 358              		.file 9 "../Drivers/STM32F1xx_HAL_Driver/Inc/stm32f1xx_hal_dma.h"
 359              		.file 10 "../Drivers/STM32F1xx_HAL_Driver/Inc/stm32f1xx_hal_tim.h"
 360              		.file 11 "../Core/Inc/tim.h"
 361              		.file 12 "../Drivers/STM32F1xx_HAL_Driver/Inc/stm32f1xx_hal.h"
 362              		.file 13 "../Core/Inc/gpio.h"
 363              		.file 14 "../Core/Inc/usart.h"
 364              		.file 15 "../Core/Inc/adc.h"
 365              		.file 16 "../Core/Inc/homework.h"
 366              		.file 17 "../Middlewares/Third_Party/FreeRTOS/Source/CMSIS_RTOS_V2/cmsis_os2.h"
 367              		.file 18 "../<built-in>"
ARM GAS  C:\Users\Korisnik\AppData\Local\Temp\ccOv6Ipd.s 			page 8

